target datalayout = "e-m:e-p270:32:32-p271:32:32-p272:64:64-i64:64-i128:128-f80:128-n8:16:32:64-S128"
target triple = "x86_64-pc-linux-gnu"

%struct.ImRect = type { %struct.ImVec2, %struct.ImVec2 }
%struct.ImVec2 = type { float, float }
%struct.ImGuiTextBuffer = type { %struct.ImVector.28 }
%struct.ImVector.28 = type { i32, i32, ptr }
%struct.ImGuiTableInstanceData = type { i32, float, float, float, i32, i32 }
%struct.ImGuiTableColumn = type <{ i32, float, float, float, float, float, float, float, float, %struct.ImRect, i32, float, float, float, float, float, float, float, i16, i16, i16, i16, i16, i16, i16, i16, i16, i8, i8, i8, i8, i8, i8, i8, i8, i8, i8, i8, i8, i8, i8 }>
%struct.ImGuiTable = type <{ i32, i32, ptr, ptr, %struct.ImSpan, %struct.ImSpan.41, %struct.ImSpan.42, ptr, ptr, ptr, i32, i32, i32, i32, i32, i32, i16, i16, float, float, float, float, float, float, i32, i32, [2 x i32], i32, i32, float, float, float, float, float, float, float, float, float, float, float, float, float, float, float, float, float, %struct.ImRect, %struct.ImRect, %struct.ImRect, %struct.ImRect, %struct.ImRect, %struct.ImRect, %struct.ImRect, %struct.ImRect, %struct.ImRect, ptr, ptr, %struct.ImGuiTextBuffer, ptr, %struct.ImGuiTableInstanceData, %struct.ImVector.43, %struct.ImGuiTableColumnSortSpecs, [4 x i8], %struct.ImVector.44, %struct.ImGuiTableSortSpecs, i16, i16, i16, i16, i16, i16, i16, i16, i16, i16, i16, i16, i16, i16, i16, i16, i16, i16, i16, i16, i16, i16, i16, i16, i16, i16, i16, i8, i8, i8, i8, i8, i8, i8, i8, i8, i8, i8, i8, i8, i8, i8, i8, i8, i8, i8, i8, [6 x i8] }>
%struct.ImSpan = type { ptr, ptr }
%struct.ImSpan.41 = type { ptr, ptr }
%struct.ImSpan.42 = type { ptr, ptr }
%struct.ImVector.43 = type { i32, i32, ptr }
%struct.ImGuiTableColumnSortSpecs = type <{ i32, i16, i16, i8, [3 x i8] }>
%struct.ImVector.44 = type { i32, i32, ptr }
%struct.ImGuiTableSortSpecs = type <{ ptr, i32, i8, [3 x i8] }>

@.str.4 = private unnamed_addr constant [1 x i8] zeroinitializer, align 1

; Function Attrs: inlinehint mustprogress nounwind uwtable
define linkonce_odr dso_local noundef nonnull align 1 dereferenceable(1) ptr @_ZNK8ImVectorIcEixEi(ptr noundef nonnull align 8 dereferenceable(16) %0, i32 noundef %1) #4 comdat align 2 {
  %3 = alloca ptr, align 8
  %4 = alloca i32, align 4
  store ptr %0, ptr %3, align 8, !tbaa !376
  store i32 %1, ptr %4, align 4, !tbaa !4
  %5 = load ptr, ptr %3, align 8
  %6 = getelementptr inbounds nuw %struct.ImVector.28, ptr %5, i32 0, i32 2
  %7 = load ptr, ptr %6, align 8, !tbaa !560
  %8 = load i32, ptr %4, align 4, !tbaa !4
  %9 = sext i32 %8 to i64
  %10 = getelementptr inbounds i8, ptr %7, i64 %9
  ret ptr %10
}

; Function Attrs: inlinehint mustprogress nounwind uwtable
define linkonce_odr dso_local noundef nonnull align 4 dereferenceable(115) ptr @_ZNK6ImSpanI16ImGuiTableColumnEixEi(ptr noundef nonnull align 8 dereferenceable(16) %0, i32 noundef %1) #4 comdat align 2 {
  %3 = alloca ptr, align 8
  %4 = alloca i32, align 4
  %5 = alloca ptr, align 8
  store ptr %0, ptr %3, align 8, !tbaa !335
  store i32 %1, ptr %4, align 4, !tbaa !4
  %6 = load ptr, ptr %3, align 8
  call void @llvm.lifetime.start.p0(i64 8, ptr %5) #8
  %7 = getelementptr inbounds nuw %struct.ImSpan, ptr %6, i32 0, i32 0
  %8 = load ptr, ptr %7, align 8, !tbaa !338
  %9 = load i32, ptr %4, align 4, !tbaa !4
  %10 = sext i32 %9 to i64
  %11 = getelementptr inbounds %struct.ImGuiTableColumn, ptr %8, i64 %10
  store ptr %11, ptr %5, align 8, !tbaa !259
  %12 = load ptr, ptr %5, align 8, !tbaa !259
  call void @llvm.lifetime.end.p0(i64 8, ptr %5) #8
  ret ptr %12
}

; Function Attrs: mustprogress uwtable
define dso_local noundef ptr @_ZN5ImGui18TableGetColumnNameEPK10ImGuiTablei(ptr noundef %0, i32 noundef %1) #0 {
  %3 = alloca ptr, align 8
  %4 = alloca ptr, align 8
  %5 = alloca i32, align 4
  %6 = alloca ptr, align 8
  %7 = alloca i32, align 4
  store ptr %0, ptr %4, align 8, !tbaa !166
  store i32 %1, ptr %5, align 4, !tbaa !4
  %8 = load ptr, ptr %4, align 8, !tbaa !166
  %9 = getelementptr inbounds nuw %struct.ImGuiTable, ptr %8, i32 0, i32 92
  %10 = load i8, ptr %9, align 2, !tbaa !200, !range !64, !noundef !65
  %11 = trunc i8 %10 to i1
  %12 = zext i1 %11 to i32
  %13 = icmp eq i32 %12, 0
  br i1 %13, label %14, label %22

14:                                               ; preds = %2
  %15 = load i32, ptr %5, align 4, !tbaa !4
  %16 = load ptr, ptr %4, align 8, !tbaa !166
  %17 = getelementptr inbounds nuw %struct.ImGuiTable, ptr %16, i32 0, i32 68
  %18 = load i16, ptr %17, align 2, !tbaa !245
  %19 = sext i16 %18 to i32
  %20 = icmp sge i32 %15, %19
  br i1 %20, label %21, label %22

21:                                               ; preds = %14
  store ptr @.str.4, ptr %3, align 8
  br label %43

22:                                               ; preds = %14, %2
  call void @llvm.lifetime.start.p0(i64 8, ptr %6) #8
  %23 = load ptr, ptr %4, align 8, !tbaa !166
  %24 = getelementptr inbounds nuw %struct.ImGuiTable, ptr %23, i32 0, i32 4
  %25 = load i32, ptr %5, align 4, !tbaa !4
  %26 = call noundef nonnull align 4 dereferenceable(115) ptr @_ZNK6ImSpanI16ImGuiTableColumnEixEi(ptr noundef nonnull align 8 dereferenceable(16) %24, i32 noundef %25)
  store ptr %26, ptr %6, align 8, !tbaa !259
  %27 = load ptr, ptr %6, align 8, !tbaa !259
  %28 = getelementptr inbounds nuw %struct.ImGuiTableColumn, ptr %27, i32 0, i32 18
  %29 = load i16, ptr %28, align 4, !tbaa !346
  %30 = sext i16 %29 to i32
  %31 = icmp eq i32 %30, -1
  br i1 %31, label %32, label %33

32:                                               ; preds = %22
  store ptr @.str.4, ptr %3, align 8
  store i32 1, ptr %7, align 4
  br label %42

33:                                               ; preds = %22
  %34 = load ptr, ptr %4, align 8, !tbaa !166
  %35 = getelementptr inbounds nuw %struct.ImGuiTable, ptr %34, i32 0, i32 57
  %36 = getelementptr inbounds nuw %struct.ImGuiTextBuffer, ptr %35, i32 0, i32 0
  %37 = load ptr, ptr %6, align 8, !tbaa !259
  %38 = getelementptr inbounds nuw %struct.ImGuiTableColumn, ptr %37, i32 0, i32 18
  %39 = load i16, ptr %38, align 4, !tbaa !346
  %40 = sext i16 %39 to i32
  %41 = call noundef nonnull align 1 dereferenceable(1) ptr @_ZNK8ImVectorIcEixEi(ptr noundef nonnull align 8 dereferenceable(16) %36, i32 noundef %40)
  store ptr %41, ptr %3, align 8
  store i32 1, ptr %7, align 4
  br label %42

42:                                               ; preds = %33, %32
  call void @llvm.lifetime.end.p0(i64 8, ptr %6) #8
  br label %43

43:                                               ; preds = %42, %21
  %44 = load ptr, ptr %3, align 8
  ret ptr %44
}