; Function Attrs: mustprogress nofree norecurse nosync nounwind willreturn memory(read, inaccessiblemem: none) uwtable
define dso_local noundef ptr @_ZN5ImGui18TableGetColumnNameEPK10ImGuiTablei(ptr noundef readonly captures(none) %0, i32 noundef %1) local_unnamed_addr #12 {
  %3 = getelementptr inbounds nuw i8, ptr %0, i64 566
  %4 = load i8, ptr %3, align 2, !tbaa !208, !range !152, !noundef !153
  %5 = icmp eq i8 %4, 0
  br i1 %5, label %6, label %10

6:                                                ; preds = %2
  %7 = getelementptr inbounds nuw i8, ptr %0, i64 518
  %8 = load i16, ptr %7, align 2, !tbaa !253
  %9 = sext i16 %8 to i32
  %.not = icmp slt i32 %1, %9
  br i1 %.not, label %10, label %22

10:                                               ; preds = %6, %2
  %11 = getelementptr inbounds nuw i8, ptr %0, i64 24
  %12 = load ptr, ptr %11, align 8, !tbaa !271
  %13 = sext i32 %1 to i64
  %14 = getelementptr inbounds %struct.ImGuiTableColumn, ptr %12, i64 %13, i32 18
  %15 = load i16, ptr %14, align 4, !tbaa !362
  %16 = icmp eq i16 %15, -1
  br i1 %16, label %22, label %17

17:                                               ; preds = %10
  %18 = getelementptr inbounds nuw i8, ptr %0, i64 408
  %19 = load ptr, ptr %18, align 8, !tbaa !316
  %20 = sext i16 %15 to i64
  %21 = getelementptr inbounds i8, ptr %19, i64 %20
  br label %22

22:                                               ; preds = %17, %10, %6
  %.0 = phi ptr [ @.str.4, %6 ], [ %21, %17 ], [ @.str.4, %10 ]
  ret ptr %.0
}